; ModuleID = '20/692.c'
source_filename = "20/692.c"
target datalayout = "e-m:e-p270:32:32-p271:32:32-p272:64:64-i64:64-f80:128-n8:16:32:64-S128"
target triple = "x86_64-pc-linux-gnu"

@.str = private unnamed_addr constant [6 x i8] c"%s %s\00", align 1
@.str.1 = private unnamed_addr constant [4 x i8] c"%s\0A\00", align 1

; Function Attrs: noinline nounwind uwtable
define dso_local void @main() #0 {
  %1 = alloca i32, align 4
  %2 = alloca i32, align 4
  %3 = alloca i32, align 4
  %4 = alloca i32, align 4
  %5 = alloca [11 x i8], align 1
  %6 = alloca [4 x i8], align 1
  %7 = alloca [15 x i8], align 1
  br label %8

8:                                                ; preds = %106, %0
  %9 = getelementptr inbounds [11 x i8], [11 x i8]* %5, i64 0, i64 0
  %10 = getelementptr inbounds [4 x i8], [4 x i8]* %6, i64 0, i64 0
  %11 = call i32 (i8*, ...) @__isoc99_scanf(i8* getelementptr inbounds ([6 x i8], [6 x i8]* @.str, i64 0, i64 0), i8* %9, i8* %10)
  %12 = icmp ne i32 %11, -1
  br i1 %12, label %13, label %114

13:                                               ; preds = %8
  %14 = getelementptr inbounds [11 x i8], [11 x i8]* %5, i64 0, i64 0
  %15 = call i64 @strlen(i8* %14) #3
  %16 = trunc i64 %15 to i32
  store i32 %16, i32* %3, align 4
  %17 = getelementptr inbounds [4 x i8], [4 x i8]* %6, i64 0, i64 0
  %18 = call i64 @strlen(i8* %17) #3
  %19 = trunc i64 %18 to i32
  store i32 %19, i32* %4, align 4
  store i32 0, i32* %2, align 4
  store i32 0, i32* %1, align 4
  br label %20

20:                                               ; preds = %39, %13
  %21 = load i32, i32* %1, align 4
  %22 = load i32, i32* %3, align 4
  %23 = icmp slt i32 %21, %22
  br i1 %23, label %24, label %42

24:                                               ; preds = %20
  %25 = load i32, i32* %1, align 4
  %26 = sext i32 %25 to i64
  %27 = getelementptr inbounds [11 x i8], [11 x i8]* %5, i64 0, i64 %26
  %28 = load i8, i8* %27, align 1
  %29 = sext i8 %28 to i32
  %30 = load i32, i32* %2, align 4
  %31 = sext i32 %30 to i64
  %32 = getelementptr inbounds [11 x i8], [11 x i8]* %5, i64 0, i64 %31
  %33 = load i8, i8* %32, align 1
  %34 = sext i8 %33 to i32
  %35 = icmp sgt i32 %29, %34
  br i1 %35, label %36, label %38

36:                                               ; preds = %24
  %37 = load i32, i32* %1, align 4
  store i32 %37, i32* %2, align 4
  br label %38

38:                                               ; preds = %36, %24
  br label %39

39:                                               ; preds = %38
  %40 = load i32, i32* %1, align 4
  %41 = add nsw i32 %40, 1
  store i32 %41, i32* %1, align 4
  br label %20

42:                                               ; preds = %20
  store i32 0, i32* %1, align 4
  br label %43

43:                                               ; preds = %55, %42
  %44 = load i32, i32* %1, align 4
  %45 = load i32, i32* %2, align 4
  %46 = icmp sle i32 %44, %45
  br i1 %46, label %47, label %58

47:                                               ; preds = %43
  %48 = load i32, i32* %1, align 4
  %49 = sext i32 %48 to i64
  %50 = getelementptr inbounds [11 x i8], [11 x i8]* %5, i64 0, i64 %49
  %51 = load i8, i8* %50, align 1
  %52 = load i32, i32* %1, align 4
  %53 = sext i32 %52 to i64
  %54 = getelementptr inbounds [15 x i8], [15 x i8]* %7, i64 0, i64 %53
  store i8 %51, i8* %54, align 1
  br label %55

55:                                               ; preds = %47
  %56 = load i32, i32* %1, align 4
  %57 = add nsw i32 %56, 1
  store i32 %57, i32* %1, align 4
  br label %43

58:                                               ; preds = %43
  %59 = load i32, i32* %2, align 4
  %60 = add nsw i32 %59, 1
  store i32 %60, i32* %1, align 4
  br label %61

61:                                               ; preds = %79, %58
  %62 = load i32, i32* %1, align 4
  %63 = load i32, i32* %2, align 4
  %64 = add nsw i32 %63, 1
  %65 = load i32, i32* %4, align 4
  %66 = add nsw i32 %64, %65
  %67 = icmp slt i32 %62, %66
  br i1 %67, label %68, label %82

68:                                               ; preds = %61
  %69 = load i32, i32* %1, align 4
  %70 = load i32, i32* %2, align 4
  %71 = sub nsw i32 %69, %70
  %72 = sub nsw i32 %71, 1
  %73 = sext i32 %72 to i64
  %74 = getelementptr inbounds [4 x i8], [4 x i8]* %6, i64 0, i64 %73
  %75 = load i8, i8* %74, align 1
  %76 = load i32, i32* %1, align 4
  %77 = sext i32 %76 to i64
  %78 = getelementptr inbounds [15 x i8], [15 x i8]* %7, i64 0, i64 %77
  store i8 %75, i8* %78, align 1
  br label %79

79:                                               ; preds = %68
  %80 = load i32, i32* %1, align 4
  %81 = add nsw i32 %80, 1
  store i32 %81, i32* %1, align 4
  br label %61

82:                                               ; preds = %61
  %83 = load i32, i32* %2, align 4
  %84 = add nsw i32 %83, 1
  %85 = load i32, i32* %4, align 4
  %86 = add nsw i32 %84, %85
  store i32 %86, i32* %1, align 4
  br label %87

87:                                               ; preds = %103, %82
  %88 = load i32, i32* %1, align 4
  %89 = load i32, i32* %3, align 4
  %90 = load i32, i32* %4, align 4
  %91 = add nsw i32 %89, %90
  %92 = icmp slt i32 %88, %91
  br i1 %92, label %93, label %106

93:                                               ; preds = %87
  %94 = load i32, i32* %1, align 4
  %95 = load i32, i32* %4, align 4
  %96 = sub nsw i32 %94, %95
  %97 = sext i32 %96 to i64
  %98 = getelementptr inbounds [11 x i8], [11 x i8]* %5, i64 0, i64 %97
  %99 = load i8, i8* %98, align 1
  %100 = load i32, i32* %1, align 4
  %101 = sext i32 %100 to i64
  %102 = getelementptr inbounds [15 x i8], [15 x i8]* %7, i64 0, i64 %101
  store i8 %99, i8* %102, align 1
  br label %103

103:                                              ; preds = %93
  %104 = load i32, i32* %1, align 4
  %105 = add nsw i32 %104, 1
  store i32 %105, i32* %1, align 4
  br label %87

106:                                              ; preds = %87
  %107 = load i32, i32* %3, align 4
  %108 = load i32, i32* %4, align 4
  %109 = add nsw i32 %107, %108
  %110 = sext i32 %109 to i64
  %111 = getelementptr inbounds [15 x i8], [15 x i8]* %7, i64 0, i64 %110
  store i8 0, i8* %111, align 1
  %112 = getelementptr inbounds [15 x i8], [15 x i8]* %7, i64 0, i64 0
  %113 = call i32 (i8*, ...) @printf(i8* getelementptr inbounds ([4 x i8], [4 x i8]* @.str.1, i64 0, i64 0), i8* %112)
  br label %8

114:                                              ; preds = %8
  ret void
}

declare dso_local i32 @__isoc99_scanf(i8*, ...) #1

; Function Attrs: nounwind readonly
declare dso_local i64 @strlen(i8*) #2

declare dso_local i32 @printf(i8*, ...) #1


!llvm.module.flags = !{!0}
!llvm.ident = !{!1}

!0 = !{i32 1, !"wchar_size", i32 4}
!1 = !{!"clang version 10.0.0-4ubuntu1 "}
